Certificate:
    Data:
        Version: 3 (0x2)
        Serial Number:
            d6:22:14:75:9c:f0:d3:82
        Signature Algorithm: sha1WithRSAEncryption
        Issuer: C=DE, ST=Some-State, O=DLR, OU=SC, CN=Chief Admin
        Validity
            Not Before: Sep  4 19:33:37 2011 GMT
            Not After : Sep  3 19:33:37 2012 GMT
        Subject: C=DE, ST=Some-State, O=DLR, CN=Chief Engineer
        Subject Public Key Info:
            Public Key Algorithm: rsaEncryption
            RSA Public Key: (1024 bit)
                Modulus (1024 bit):
                    00:dd:5e:60:4d:3f:4f:ab:9d:c5:03:90:1c:d7:06:
                    aa:79:b3:20:e2:28:c3:60:0e:9f:3b:48:53:0b:45:
                    7a:01:97:99:e3:76:f5:f5:19:56:40:87:97:61:70:
                    e8:b3:ba:01:d6:ff:2e:2b:37:5b:e3:55:0e:d0:3d:
                    d6:bb:e3:0f:fd:1b:97:8b:7f:53:a7:6a:31:21:14:
                    75:a0:b0:1b:e1:1d:d0:8e:f8:aa:ca:6a:9f:c7:dd:
                    a8:ae:df:d7:a4:8d:aa:7d:a5:f0:93:f1:d0:42:df:
                    96:02:76:83:f0:1a:1b:49:fa:11:23:53:27:ae:24:
                    11:54:1f:00:3a:94:9d:59:db
                Exponent: 65537 (0x10001)
        X509v3 extensions:
            X509v3 Basic Constraints: 
                CA:FALSE
            Netscape Comment: 
                OpenSSL Generated Certificate
            X509v3 Subject Key Identifier: 
                0A:77:90:69:A7:31:72:AE:C2:12:41:3D:39:7E:50:D6:6A:B6:D8:0E
            X509v3 Authority Key Identifier: 
                keyid:A4:7B:3C:F7:12:D6:12:13:51:DD:FE:C6:CA:85:0B:6F:48:2A:A4:01

    Signature Algorithm: sha1WithRSAEncryption
        82:40:a9:ca:db:46:46:82:42:ae:de:f5:32:fe:f6:7c:d5:15:
        1b:94:f7:6d:62:25:cd:d4:de:11:3e:8e:3e:dc:c6:d8:f4:ec:
        82:c3:81:2b:fe:da:0c:25:65:e1:61:10:de:84:c1:91:75:ce:
        51:c6:83:3b:74:86:99:e1:fc:c5:13:44:d3:b9:af:7b:9d:39:
        75:d3:38:1b:a7:cf:03:c2:bf:c1:b6:c5:0d:a5:e8:f5:2e:2b:
        4a:54:fd:8a:7a:b0:ba:b0:d6:e1:d4:06:50:cd:ae:bf:36:11:
        d1:4c:f1:c6:9d:9d:6e:af:9a:d6:5b:df:fd:4d:41:df:cc:33:
        50:1f
-----BEGIN CERTIFICATE-----
MIIClTCCAf6gAwIBAgIJANYiFHWc8NOCMA0GCSqGSIb3DQEBBQUAMFMxCzAJBgNV
BAYTAkRFMRMwEQYDVQQIEwpTb21lLVN0YXRlMQwwCgYDVQQKEwNETFIxCzAJBgNV
BAsTAlNDMRQwEgYDVQQDEwtDaGllZiBBZG1pbjAeFw0xMTA5MDQxOTMzMzdaFw0x
MjA5MDMxOTMzMzdaMEkxCzAJBgNVBAYTAkRFMRMwEQYDVQQIEwpTb21lLVN0YXRl
MQwwCgYDVQQKEwNETFIxFzAVBgNVBAMTDkNoaWVmIEVuZ2luZWVyMIGfMA0GCSqG
SIb3DQEBAQUAA4GNADCBiQKBgQDdXmBNP0+rncUDkBzXBqp5syDiKMNgDp87SFML
RXoBl5njdvX1GVZAh5dhcOizugHW/y4rN1vjVQ7QPda74w/9G5eLf1OnajEhFHWg
sBvhHdCO+KrKap/H3aiu39ekjap9pfCT8dBC35YCdoPwGhtJ+hEjUyeuJBFUHwA6
lJ1Z2wIDAQABo3sweTAJBgNVHRMEAjAAMCwGCWCGSAGG+EIBDQQfFh1PcGVuU1NM
IEdlbmVyYXRlZCBDZXJ0aWZpY2F0ZTAdBgNVHQ4EFgQUCneQaacxcq7CEkE9OX5Q
1mq22A4wHwYDVR0jBBgwFoAUpHs89xLWEhNR3f7GyoULb0gqpAEwDQYJKoZIhvcN
AQEFBQADgYEAgkCpyttGRoJCrt71Mv72fNUVG5T3bWIlzdTeET6OPtzG2PTsgsOB
K/7aDCVl4WEQ3oTBkXXOUcaDO3SGmeH8xRNE07mve505ddM4G6fPA8K/wbbFDaXo
9S4rSlT9inqwurDW4dQGUM2uvzYR0Uzxxp2dbq+a1lvf/U1B38wzUB8=
-----END CERTIFICATE-----
