Certificate:
    Data:
        Version: 3 (0x2)
        Serial Number:
            d6:22:14:75:9c:f0:d3:81
        Signature Algorithm: sha1WithRSAEncryption
        Issuer: C=DE, ST=Some-State, O=DLR, OU=SC, CN=Chief Admin
        Validity
            Not Before: Sep  4 19:31:30 2011 GMT
            Not After : Sep  1 19:31:30 2021 GMT
        Subject: C=DE, ST=Some-State, O=DLR, OU=SC, CN=Chief Admin
        Subject Public Key Info:
            Public Key Algorithm: rsaEncryption
            RSA Public Key: (1024 bit)
                Modulus (1024 bit):
                    00:c0:df:c4:20:f8:90:5f:4c:77:b2:78:02:d9:78:
                    30:27:af:b2:56:9b:e9:cf:50:77:db:da:db:27:03:
                    42:0a:96:38:52:bc:38:d9:7a:13:e6:85:ca:2d:d7:
                    6c:87:7e:67:82:4f:54:90:b9:0b:6b:3c:ee:31:48:
                    c7:62:bd:18:26:dc:f4:e5:91:c3:f1:e1:ba:25:41:
                    e5:72:ed:cd:7f:a3:cf:e4:3c:5a:be:a3:a0:73:c5:
                    63:cf:ca:b7:72:f4:e8:9e:95:b0:99:0f:0e:53:12:
                    2a:d4:0c:28:2a:96:62:ce:9e:a5:e9:52:20:93:18:
                    54:f8:11:76:9b:cd:f9:53:e1
                Exponent: 65537 (0x10001)
        X509v3 extensions:
            X509v3 Subject Key Identifier: 
                A4:7B:3C:F7:12:D6:12:13:51:DD:FE:C6:CA:85:0B:6F:48:2A:A4:01
            X509v3 Authority Key Identifier: 
                keyid:A4:7B:3C:F7:12:D6:12:13:51:DD:FE:C6:CA:85:0B:6F:48:2A:A4:01
                DirName:/C=DE/ST=Some-State/O=DLR/OU=SC/CN=Chief Admin
                serial:D6:22:14:75:9C:F0:D3:81

            X509v3 Basic Constraints: 
                CA:TRUE
    Signature Algorithm: sha1WithRSAEncryption
        64:31:32:ae:fb:ba:37:6f:06:1b:d1:20:b5:d8:e2:52:60:89:
        3b:a9:2b:98:37:96:9e:21:79:9c:7e:cd:d6:44:7a:38:1a:9c:
        05:c7:69:ce:db:30:51:87:b5:b0:60:ba:48:fd:e0:d0:89:72:
        66:78:92:7a:f0:95:37:e7:4d:2b:99:dd:f0:dd:e9:08:7f:8d:
        50:12:14:b7:3b:ab:a4:1d:e0:0f:bd:71:05:69:8e:0e:d2:e6:
        fc:ec:81:ff:9f:78:3b:4e:d6:cc:dd:35:a6:71:04:fc:7b:38:
        4a:3a:9a:ab:65:92:4e:b5:42:29:3e:04:83:54:bb:27:8e:e2:
        40:91
-----BEGIN CERTIFICATE-----
MIIC2zCCAkSgAwIBAgIJANYiFHWc8NOBMA0GCSqGSIb3DQEBBQUAMFMxCzAJBgNV
BAYTAkRFMRMwEQYDVQQIEwpTb21lLVN0YXRlMQwwCgYDVQQKEwNETFIxCzAJBgNV
BAsTAlNDMRQwEgYDVQQDEwtDaGllZiBBZG1pbjAeFw0xMTA5MDQxOTMxMzBaFw0y
MTA5MDExOTMxMzBaMFMxCzAJBgNVBAYTAkRFMRMwEQYDVQQIEwpTb21lLVN0YXRl
MQwwCgYDVQQKEwNETFIxCzAJBgNVBAsTAlNDMRQwEgYDVQQDEwtDaGllZiBBZG1p
bjCBnzANBgkqhkiG9w0BAQEFAAOBjQAwgYkCgYEAwN/EIPiQX0x3sngC2XgwJ6+y
Vpvpz1B329rbJwNCCpY4Urw42XoT5oXKLddsh35ngk9UkLkLazzuMUjHYr0YJtz0
5ZHD8eG6JUHlcu3Nf6PP5DxavqOgc8Vjz8q3cvTonpWwmQ8OUxIq1AwoKpZizp6l
6VIgkxhU+BF2m835U+ECAwEAAaOBtjCBszAdBgNVHQ4EFgQUpHs89xLWEhNR3f7G
yoULb0gqpAEwgYMGA1UdIwR8MHqAFKR7PPcS1hITUd3+xsqFC29IKqQBoVekVTBT
MQswCQYDVQQGEwJERTETMBEGA1UECBMKU29tZS1TdGF0ZTEMMAoGA1UEChMDRExS
MQswCQYDVQQLEwJTQzEUMBIGA1UEAxMLQ2hpZWYgQWRtaW6CCQDWIhR1nPDTgTAM
BgNVHRMEBTADAQH/MA0GCSqGSIb3DQEBBQUAA4GBAGQxMq77ujdvBhvRILXY4lJg
iTupK5g3lp4heZx+zdZEejganAXHac7bMFGHtbBgukj94NCJcmZ4knrwlTfnTSuZ
3fDd6Qh/jVASFLc7q6Qd4A+9cQVpjg7S5vzsgf+feDtO1szdNaZxBPx7OEo6mqtl
kk61Qik+BINUuyeO4kCR
-----END CERTIFICATE-----
